target datalayout = "e-m:e-p270:32:32-p271:32:32-p272:64:64-i64:64-i128:128-f80:128-n8:16:32:64-S128"
target triple = "x86_64-pc-linux-gnu"

%class.GURL = type { %"class.std::__cxx11::basic_string", i8, %"struct.url::Parsed", %"class.std::unique_ptr" }
%"class.std::__cxx11::basic_string" = type { %"struct.std::__cxx11::basic_string<char>::_Alloc_hider", i64, %union.anon }
%"struct.std::__cxx11::basic_string<char>::_Alloc_hider" = type { ptr }
%union.anon = type { i64, [8 x i8] }
%"struct.url::Parsed" = type { %"struct.url::Component", %"struct.url::Component", %"struct.url::Component", %"struct.url::Component", %"struct.url::Component", %"struct.url::Component", %"struct.url::Component", %"struct.url::Component", ptr }
%"struct.url::Component" = type { i32, i32 }
%"class.std::unique_ptr" = type { %"struct.std::__uniq_ptr_data" }
%"struct.std::__uniq_ptr_data" = type { %"class.std::__uniq_ptr_impl" }
%"class.std::__uniq_ptr_impl" = type { %"class.std::tuple" }
%"class.std::tuple" = type { %"struct.std::_Tuple_impl" }
%"struct.std::_Tuple_impl" = type { %"struct.std::_Head_base.1" }
%"struct.std::_Head_base.1" = type { ptr }
%"class.url::Replacements" = type { %"struct.url::URLComponentSource", %"struct.url::Parsed" }
%"struct.url::URLComponentSource" = type { ptr, ptr, ptr, ptr, ptr, ptr, ptr, ptr }

@_ZZN3url12ReplacementsIcE11PlaceholderEvE10empty_cstr = linkonce_odr constant i8 0, comdat, align 1
@_ZN4GURLC1Ev = unnamed_addr alias void (ptr), ptr @_ZN4GURLC2Ev
@_ZN4GURLC1ERKS_ = unnamed_addr alias void (ptr, ptr), ptr @_ZN4GURLC2ERKS_

; Function Attrs: mustprogress nounwind uwtable
define available_externally noundef ptr @_ZNKSt7__cxx1112basic_stringIcSt11char_traitsIcESaIcEE7_M_dataEv(ptr noundef nonnull align 8 dereferenceable(32) %0) #1 align 2 {
  %2 = alloca ptr, align 8
  store ptr %0, ptr %2, align 8, !tbaa !25
  %3 = load ptr, ptr %2, align 8
  %4 = getelementptr inbounds nuw %"class.std::__cxx11::basic_string", ptr %3, i32 0, i32 0
  %5 = getelementptr inbounds nuw %"struct.std::__cxx11::basic_string<char>::_Alloc_hider", ptr %4, i32 0, i32 0
  %6 = load ptr, ptr %5, align 8, !tbaa !115
  ret ptr %6
}

; Function Attrs: mustprogress nounwind uwtable
define linkonce_odr void @_ZN3url9ComponentC2Ev(ptr noundef nonnull align 4 dereferenceable(8) %0) unnamed_addr #1 comdat align 2 {
  %2 = alloca ptr, align 8
  store ptr %0, ptr %2, align 8, !tbaa !76
  %3 = load ptr, ptr %2, align 8
  %4 = getelementptr inbounds nuw %"struct.url::Component", ptr %3, i32 0, i32 0
  store i32 0, ptr %4, align 4, !tbaa !78
  %5 = getelementptr inbounds nuw %"struct.url::Component", ptr %3, i32 0, i32 1
  store i32 -1, ptr %5, align 4, !tbaa !79
  ret void
}

; Function Attrs: mustprogress nounwind uwtable
define linkonce_odr noundef ptr @_ZN3url12ReplacementsIcE11PlaceholderEv(ptr noundef nonnull align 8 dereferenceable(136) %0) #1 comdat align 2 {
  %2 = alloca ptr, align 8
  store ptr %0, ptr %2, align 8, !tbaa !58
  ret ptr @_ZZN3url12ReplacementsIcE11PlaceholderEvE10empty_cstr
}

; Function Attrs: mustprogress nounwind uwtable
define linkonce_odr void @_ZN3url18URLComponentSourceIcEC2Ev(ptr noundef nonnull align 8 dereferenceable(64) %0) unnamed_addr #1 comdat align 2 {
  %2 = alloca ptr, align 8
  store ptr %0, ptr %2, align 8, !tbaa !141
  %3 = load ptr, ptr %2, align 8
  %4 = getelementptr inbounds nuw %"struct.url::URLComponentSource", ptr %3, i32 0, i32 0
  store ptr null, ptr %4, align 8, !tbaa !143
  %5 = getelementptr inbounds nuw %"struct.url::URLComponentSource", ptr %3, i32 0, i32 1
  store ptr null, ptr %5, align 8, !tbaa !144
  %6 = getelementptr inbounds nuw %"struct.url::URLComponentSource", ptr %3, i32 0, i32 2
  store ptr null, ptr %6, align 8, !tbaa !145
  %7 = getelementptr inbounds nuw %"struct.url::URLComponentSource", ptr %3, i32 0, i32 3
  store ptr null, ptr %7, align 8, !tbaa !146
  %8 = getelementptr inbounds nuw %"struct.url::URLComponentSource", ptr %3, i32 0, i32 4
  store ptr null, ptr %8, align 8, !tbaa !147
  %9 = getelementptr inbounds nuw %"struct.url::URLComponentSource", ptr %3, i32 0, i32 5
  store ptr null, ptr %9, align 8, !tbaa !148
  %10 = getelementptr inbounds nuw %"struct.url::URLComponentSource", ptr %3, i32 0, i32 6
  store ptr null, ptr %10, align 8, !tbaa !149
  %11 = getelementptr inbounds nuw %"struct.url::URLComponentSource", ptr %3, i32 0, i32 7
  store ptr null, ptr %11, align 8, !tbaa !150
  ret void
}

; Function Attrs: mustprogress nounwind uwtable
define available_externally noundef ptr @_ZNKSt7__cxx1112basic_stringIcSt11char_traitsIcESaIcEE4dataEv(ptr noundef nonnull align 8 dereferenceable(32) %0) #1 align 2 {
  %2 = alloca ptr, align 8
  store ptr %0, ptr %2, align 8, !tbaa !25
  %3 = load ptr, ptr %2, align 8
  %4 = call noundef ptr @_ZNKSt7__cxx1112basic_stringIcSt11char_traitsIcESaIcEE7_M_dataEv(ptr noundef nonnull align 8 dereferenceable(32) %3)
  ret ptr %4
}

; Function Attrs: inlinehint mustprogress nounwind uwtable
define linkonce_odr void @_ZN3url12ReplacementsIcED2Ev(ptr noundef nonnull align 8 dereferenceable(136) %0) unnamed_addr #8 comdat align 2 {
  %2 = alloca ptr, align 8
  store ptr %0, ptr %2, align 8, !tbaa !58
  %3 = load ptr, ptr %2, align 8
  %4 = getelementptr inbounds nuw %"class.url::Replacements", ptr %3, i32 0, i32 1
  call void @_ZN3url6ParsedD1Ev(ptr noundef nonnull align 8 dereferenceable(72) %4) #15
  ret void
}

; Function Attrs: mustprogress uwtable
define linkonce_odr void @_ZN3url12ReplacementsIcE13ClearPasswordEv(ptr noundef nonnull align 8 dereferenceable(136) %0) #0 comdat align 2 {
  %2 = alloca ptr, align 8
  %3 = alloca %"struct.url::Component", align 4
  store ptr %0, ptr %2, align 8, !tbaa !58
  %4 = load ptr, ptr %2, align 8
  %5 = call noundef ptr @_ZN3url12ReplacementsIcE11PlaceholderEv(ptr noundef nonnull align 8 dereferenceable(136) %4)
  %6 = getelementptr inbounds nuw %"class.url::Replacements", ptr %4, i32 0, i32 0
  %7 = getelementptr inbounds nuw %"struct.url::URLComponentSource", ptr %6, i32 0, i32 2
  store ptr %5, ptr %7, align 8, !tbaa !67
  call void @llvm.lifetime.start.p0(i64 8, ptr %3) #15
  call void @_ZN3url9ComponentC2Ev(ptr noundef nonnull align 4 dereferenceable(8) %3)
  %8 = getelementptr inbounds nuw %"class.url::Replacements", ptr %4, i32 0, i32 1
  %9 = getelementptr inbounds nuw %"struct.url::Parsed", ptr %8, i32 0, i32 2
  call void @llvm.memcpy.p0.p0.i64(ptr align 8 %9, ptr align 4 %3, i64 8, i1 false), !tbaa.struct !65
  call void @llvm.lifetime.end.p0(i64 8, ptr %3) #15
  ret void
}

; Function Attrs: mustprogress uwtable
define linkonce_odr void @_ZN3url12ReplacementsIcE13ClearUsernameEv(ptr noundef nonnull align 8 dereferenceable(136) %0) #0 comdat align 2 {
  %2 = alloca ptr, align 8
  %3 = alloca %"struct.url::Component", align 4
  store ptr %0, ptr %2, align 8, !tbaa !58
  %4 = load ptr, ptr %2, align 8
  %5 = call noundef ptr @_ZN3url12ReplacementsIcE11PlaceholderEv(ptr noundef nonnull align 8 dereferenceable(136) %4)
  %6 = getelementptr inbounds nuw %"class.url::Replacements", ptr %4, i32 0, i32 0
  %7 = getelementptr inbounds nuw %"struct.url::URLComponentSource", ptr %6, i32 0, i32 1
  store ptr %5, ptr %7, align 8, !tbaa !62
  call void @llvm.lifetime.start.p0(i64 8, ptr %3) #15
  call void @_ZN3url9ComponentC2Ev(ptr noundef nonnull align 4 dereferenceable(8) %3)
  %8 = getelementptr inbounds nuw %"class.url::Replacements", ptr %4, i32 0, i32 1
  %9 = getelementptr inbounds nuw %"struct.url::Parsed", ptr %8, i32 0, i32 1
  call void @llvm.memcpy.p0.p0.i64(ptr align 8 %9, ptr align 4 %3, i64 8, i1 false), !tbaa.struct !65
  call void @llvm.lifetime.end.p0(i64 8, ptr %3) #15
  ret void
}

; Function Attrs: mustprogress uwtable
define linkonce_odr void @_ZN3url12ReplacementsIcE8ClearRefEv(ptr noundef nonnull align 8 dereferenceable(136) %0) #0 comdat align 2 {
  %2 = alloca ptr, align 8
  %3 = alloca %"struct.url::Component", align 4
  store ptr %0, ptr %2, align 8, !tbaa !58
  %4 = load ptr, ptr %2, align 8
  %5 = call noundef ptr @_ZN3url12ReplacementsIcE11PlaceholderEv(ptr noundef nonnull align 8 dereferenceable(136) %4)
  %6 = getelementptr inbounds nuw %"class.url::Replacements", ptr %4, i32 0, i32 0
  %7 = getelementptr inbounds nuw %"struct.url::URLComponentSource", ptr %6, i32 0, i32 7
  store ptr %5, ptr %7, align 8, !tbaa !70
  call void @llvm.lifetime.start.p0(i64 8, ptr %3) #15
  call void @_ZN3url9ComponentC2Ev(ptr noundef nonnull align 4 dereferenceable(8) %3)
  %8 = getelementptr inbounds nuw %"class.url::Replacements", ptr %4, i32 0, i32 1
  %9 = getelementptr inbounds nuw %"struct.url::Parsed", ptr %8, i32 0, i32 7
  call void @llvm.memcpy.p0.p0.i64(ptr align 8 %9, ptr align 4 %3, i64 8, i1 false), !tbaa.struct !65
  call void @llvm.lifetime.end.p0(i64 8, ptr %3) #15
  ret void
}

; Function Attrs: mustprogress uwtable
define linkonce_odr void @_ZN3url12ReplacementsIcEC2Ev(ptr noundef nonnull align 8 dereferenceable(136) %0) unnamed_addr #0 comdat align 2 {
  %2 = alloca ptr, align 8
  store ptr %0, ptr %2, align 8, !tbaa !58
  %3 = load ptr, ptr %2, align 8
  %4 = getelementptr inbounds nuw %"class.url::Replacements", ptr %3, i32 0, i32 0
  call void @_ZN3url18URLComponentSourceIcEC2Ev(ptr noundef nonnull align 8 dereferenceable(64) %4)
  %5 = getelementptr inbounds nuw %"class.url::Replacements", ptr %3, i32 0, i32 1
  call void @_ZN3url6ParsedC1Ev(ptr noundef nonnull align 8 dereferenceable(72) %5)
  ret void
}

; Function Attrs: mustprogress nounwind uwtable
define linkonce_odr noundef zeroext i1 @_ZNK4GURL12has_passwordEv(ptr noundef nonnull align 8 dereferenceable(120) %0) #1 comdat align 2 {
  %2 = alloca ptr, align 8
  store ptr %0, ptr %2, align 8, !tbaa !3
  %3 = load ptr, ptr %2, align 8
  %4 = getelementptr inbounds nuw %class.GURL, ptr %3, i32 0, i32 2
  %5 = getelementptr inbounds nuw %"struct.url::Parsed", ptr %4, i32 0, i32 2
  %6 = getelementptr inbounds nuw %"struct.url::Component", ptr %5, i32 0, i32 1
  %7 = load i32, ptr %6, align 4, !tbaa !73
  %8 = icmp sge i32 %7, 0
  ret i1 %8
}

; Function Attrs: mustprogress nounwind uwtable
define linkonce_odr noundef zeroext i1 @_ZNK4GURL12has_usernameEv(ptr noundef nonnull align 8 dereferenceable(120) %0) #1 comdat align 2 {
  %2 = alloca ptr, align 8
  store ptr %0, ptr %2, align 8, !tbaa !3
  %3 = load ptr, ptr %2, align 8
  %4 = getelementptr inbounds nuw %class.GURL, ptr %3, i32 0, i32 2
  %5 = getelementptr inbounds nuw %"struct.url::Parsed", ptr %4, i32 0, i32 1
  %6 = getelementptr inbounds nuw %"struct.url::Component", ptr %5, i32 0, i32 1
  %7 = load i32, ptr %6, align 4, !tbaa !72
  %8 = icmp sge i32 %7, 0
  ret i1 %8
}

; Function Attrs: mustprogress nounwind uwtable
define linkonce_odr noundef zeroext i1 @_ZNK4GURL7has_refEv(ptr noundef nonnull align 8 dereferenceable(120) %0) #1 comdat align 2 {
  %2 = alloca ptr, align 8
  store ptr %0, ptr %2, align 8, !tbaa !3
  %3 = load ptr, ptr %2, align 8
  %4 = getelementptr inbounds nuw %class.GURL, ptr %3, i32 0, i32 2
  %5 = getelementptr inbounds nuw %"struct.url::Parsed", ptr %4, i32 0, i32 7
  %6 = getelementptr inbounds nuw %"struct.url::Component", ptr %5, i32 0, i32 1
  %7 = load i32, ptr %6, align 4, !tbaa !71
  %8 = icmp sge i32 %7, 0
  ret i1 %8
}

; Function Attrs: mustprogress uwtable
define noundef zeroext i1 @_ZNK4GURL24SchemeIsValidForReferrerEv(ptr noundef nonnull align 8 dereferenceable(120) %0) #0 align 2 {
  %2 = alloca ptr, align 8
  store ptr %0, ptr %2, align 8, !tbaa !3
  %3 = load ptr, ptr %2, align 8
  %4 = getelementptr inbounds nuw %class.GURL, ptr %3, i32 0, i32 1
  %5 = load i8, ptr %4, align 8, !tbaa !8, !range !29, !noundef !30
  %6 = trunc i8 %5 to i1
  br i1 %6, label %7, label %13

7:                                                ; preds = %1
  %8 = getelementptr inbounds nuw %class.GURL, ptr %3, i32 0, i32 0
  %9 = call noundef ptr @_ZNKSt7__cxx1112basic_stringIcSt11char_traitsIcESaIcEE4dataEv(ptr noundef nonnull align 8 dereferenceable(32) %8) #15
  %10 = getelementptr inbounds nuw %class.GURL, ptr %3, i32 0, i32 2
  %11 = getelementptr inbounds nuw %"struct.url::Parsed", ptr %10, i32 0, i32 0
  %12 = call noundef zeroext i1 @_ZN3url16IsReferrerSchemeEPKcRKNS_9ComponentE(ptr noundef %9, ptr noundef nonnull align 4 dereferenceable(8) %11)
  br label %13

13:                                               ; preds = %7, %1
  %14 = phi i1 [ false, %1 ], [ %12, %7 ]
  ret i1 %14
}

; Function Attrs: mustprogress uwtable
define void @_ZNK4GURL13GetAsReferrerEv(ptr dead_on_unwind noalias writable sret(%class.GURL) align 8 %0, ptr noundef nonnull align 8 dereferenceable(120) %1) #0 align 2 personality ptr @__gxx_personality_v0 {
  %3 = alloca ptr, align 8
  %4 = alloca ptr, align 8
  %5 = alloca %"class.url::Replacements", align 8
  %6 = alloca ptr, align 8
  %7 = alloca i32, align 4
  store ptr %0, ptr %3, align 8
  store ptr %1, ptr %4, align 8, !tbaa !3
  %8 = load ptr, ptr %4, align 8
  %9 = call noundef zeroext i1 @_ZNK4GURL24SchemeIsValidForReferrerEv(ptr noundef nonnull align 8 dereferenceable(120) %8)
  br i1 %9, label %11, label %10

10:                                               ; preds = %2
  call void @_ZN4GURLC1Ev(ptr noundef nonnull align 8 dereferenceable(120) %0)
  br label %27

11:                                               ; preds = %2
  %12 = call noundef zeroext i1 @_ZNK4GURL7has_refEv(ptr noundef nonnull align 8 dereferenceable(120) %8)
  br i1 %12, label %18, label %13

13:                                               ; preds = %11
  %14 = call noundef zeroext i1 @_ZNK4GURL12has_usernameEv(ptr noundef nonnull align 8 dereferenceable(120) %8)
  br i1 %14, label %18, label %15

15:                                               ; preds = %13
  %16 = call noundef zeroext i1 @_ZNK4GURL12has_passwordEv(ptr noundef nonnull align 8 dereferenceable(120) %8)
  br i1 %16, label %18, label %17

17:                                               ; preds = %15
  call void @_ZN4GURLC1ERKS_(ptr noundef nonnull align 8 dereferenceable(120) %0, ptr noundef nonnull align 8 dereferenceable(120) %8)
  br label %27

18:                                               ; preds = %15, %13, %11
  call void @llvm.lifetime.start.p0(i64 136, ptr %5) #15
  call void @_ZN3url12ReplacementsIcEC2Ev(ptr noundef nonnull align 8 dereferenceable(136) %5)
  invoke void @_ZN3url12ReplacementsIcE8ClearRefEv(ptr noundef nonnull align 8 dereferenceable(136) %5)
          to label %19 unwind label %23

19:                                               ; preds = %18
  invoke void @_ZN3url12ReplacementsIcE13ClearUsernameEv(ptr noundef nonnull align 8 dereferenceable(136) %5)
          to label %20 unwind label %23

20:                                               ; preds = %19
  invoke void @_ZN3url12ReplacementsIcE13ClearPasswordEv(ptr noundef nonnull align 8 dereferenceable(136) %5)
          to label %21 unwind label %23

21:                                               ; preds = %20
  invoke void @_ZNK4GURL17ReplaceComponentsERKN3url12ReplacementsIcEE(ptr dead_on_unwind writable sret(%class.GURL) align 8 %0, ptr noundef nonnull align 8 dereferenceable(120) %8, ptr noundef nonnull align 8 dereferenceable(136) %5)
          to label %22 unwind label %23

22:                                               ; preds = %21
  call void @_ZN3url12ReplacementsIcED2Ev(ptr noundef nonnull align 8 dereferenceable(136) %5) #15
  call void @llvm.lifetime.end.p0(i64 136, ptr %5) #15
  br label %27

23:                                               ; preds = %21, %20, %19, %18
  %24 = landingpad { ptr, i32 }
          cleanup
  %25 = extractvalue { ptr, i32 } %24, 0
  store ptr %25, ptr %6, align 8
  %26 = extractvalue { ptr, i32 } %24, 1
  store i32 %26, ptr %7, align 4
  call void @_ZN3url12ReplacementsIcED2Ev(ptr noundef nonnull align 8 dereferenceable(136) %5) #15
  call void @llvm.lifetime.end.p0(i64 136, ptr %5) #15
  br label %28

27:                                               ; preds = %22, %17, %10
  ret void

28:                                               ; preds = %23
  %29 = load ptr, ptr %6, align 8
  %30 = load i32, ptr %7, align 4
  %31 = insertvalue { ptr, i32 } poison, ptr %29, 0
  %32 = insertvalue { ptr, i32 } %31, i32 %30, 1
  resume { ptr, i32 } %32
}