; Function Attrs: mustprogress uwtable
define void @_ZNK4GURL13GetAsReferrerEv(ptr dead_on_unwind noalias writable sret(%class.GURL) align 8 %0, ptr noundef nonnull align 8 dereferenceable(120) %1) local_unnamed_addr #0 align 2 personality ptr @__gxx_personality_v0 {
  %3 = alloca %"class.url::Replacements", align 8
  %4 = getelementptr inbounds nuw i8, ptr %1, i64 32
  %5 = load i8, ptr %4, align 8, !tbaa !13, !range !30, !noundef !31
  %6 = trunc nuw i8 %5 to i1
  br i1 %6, label %_ZNK4GURL24SchemeIsValidForReferrerEv.exit, label %_ZNK4GURL24SchemeIsValidForReferrerEv.exit.thread

_ZNK4GURL24SchemeIsValidForReferrerEv.exit:       ; preds = %2
  %7 = load ptr, ptr %1, align 8, !tbaa !28
  %8 = getelementptr inbounds nuw i8, ptr %1, i64 40
  %9 = tail call noundef zeroext i1 @_ZN3url16IsReferrerSchemeEPKcRKNS_9ComponentE(ptr noundef %7, ptr noundef nonnull align 4 dereferenceable(8) %8)
  br i1 %9, label %10, label %_ZNK4GURL24SchemeIsValidForReferrerEv.exit.thread

_ZNK4GURL24SchemeIsValidForReferrerEv.exit.thread: ; preds = %2, %_ZNK4GURL24SchemeIsValidForReferrerEv.exit
  tail call void @_ZN4GURLC1Ev(ptr noundef nonnull align 8 dereferenceable(120) %0)
  br label %32

10:                                               ; preds = %_ZNK4GURL24SchemeIsValidForReferrerEv.exit
  %11 = getelementptr inbounds nuw i8, ptr %1, i64 100
  %12 = load i32, ptr %11, align 4, !tbaa !50
  %13 = icmp sgt i32 %12, -1
  %14 = getelementptr inbounds nuw i8, ptr %1, i64 52
  %15 = load i32, ptr %14, align 4
  %16 = icmp sgt i32 %15, -1
  %or.cond = select i1 %13, i1 true, i1 %16
  %17 = getelementptr inbounds nuw i8, ptr %1, i64 60
  %18 = load i32, ptr %17, align 4
  %19 = icmp sgt i32 %18, -1
  %or.cond6 = select i1 %or.cond, i1 true, i1 %19
  br i1 %or.cond6, label %21, label %20

20:                                               ; preds = %10
  tail call void @_ZN4GURLC1ERKS_(ptr noundef nonnull align 8 dereferenceable(120) %0, ptr noundef nonnull align 8 dereferenceable(120) %1)
  br label %32

21:                                               ; preds = %10
  call void @llvm.lifetime.start.p0(i64 136, ptr nonnull %3) #17
  call void @llvm.memset.p0.i64(ptr noundef nonnull align 8 dereferenceable(136) %3, i8 0, i64 64, i1 false)
  %22 = getelementptr inbounds nuw i8, ptr %3, i64 64
  call void @_ZN3url6ParsedC1Ev(ptr noundef nonnull align 8 dereferenceable(72) %22)
  %23 = getelementptr inbounds nuw i8, ptr %3, i64 56
  store ptr @_ZZN3url12ReplacementsIcE11PlaceholderEvE10empty_cstr, ptr %23, align 8, !tbaa !49
  %24 = getelementptr inbounds nuw i8, ptr %3, i64 120
  store i64 -4294967296, ptr %24, align 8
  %25 = getelementptr inbounds nuw i8, ptr %3, i64 8
  store ptr @_ZZN3url12ReplacementsIcE11PlaceholderEvE10empty_cstr, ptr %25, align 8, !tbaa !43
  %26 = getelementptr inbounds nuw i8, ptr %3, i64 72
  store i64 -4294967296, ptr %26, align 8
  %27 = getelementptr inbounds nuw i8, ptr %3, i64 16
  store ptr @_ZZN3url12ReplacementsIcE11PlaceholderEvE10empty_cstr, ptr %27, align 8, !tbaa !46
  %28 = getelementptr inbounds nuw i8, ptr %3, i64 80
  store i64 -4294967296, ptr %28, align 8
  invoke void @_ZNK4GURL17ReplaceComponentsERKN3url12ReplacementsIcEE(ptr dead_on_unwind writable sret(%class.GURL) align 8 %0, ptr noundef nonnull align 8 dereferenceable(120) %1, ptr noundef nonnull align 8 dereferenceable(136) %3)
          to label %29 unwind label %30

29:                                               ; preds = %21
  call void @_ZN3url6ParsedD1Ev(ptr noundef nonnull align 8 dereferenceable(72) %22) #17
  call void @llvm.lifetime.end.p0(i64 136, ptr nonnull %3) #17
  br label %32

30:                                               ; preds = %21
  %31 = landingpad { ptr, i32 }
          cleanup
  call void @_ZN3url6ParsedD1Ev(ptr noundef nonnull align 8 dereferenceable(72) %22) #17
  call void @llvm.lifetime.end.p0(i64 136, ptr nonnull %3) #17
  resume { ptr, i32 } %31

32:                                               ; preds = %29, %20, %_ZNK4GURL24SchemeIsValidForReferrerEv.exit.thread
  ret void
}